ccopy_reg
_reconstructor
p0
(csklearn.feature_extraction.dict_vectorizer
DictVectorizer
p1
c__builtin__
object
p2
Ntp3
Rp4
(dp5
S'sort'
p6
I01
sS'feature_names_'
p7
(lp8
S'X1=<5'
p9
aS'X1=>10'
p10
aS'X1=>20'
p11
aS'X1=>30'
p12
aS'X1=>40'
p13
aS'X1=>5'
p14
aS'X2=<4'
p15
aS'X2=<4.2'
p16
aS'X2=<4.4'
p17
aS'X2=<4.6'
p18
aS'X2=<4.8'
p19
aS'X2=<5'
p20
aS'X2=<5.2'
p21
aS'X2=<5.4'
p22
aS'X2=<5.6'
p23
aS'X2=<5.8'
p24
aS'X2=<6'
p25
aS'X2=>6'
p26
aS'X3=AP'
p27
aS'X3=AS'
p28
aS'X3=BB'
p29
aS'X3=BR'
p30
aS'X3=CH'
p31
aS'X3=CT'
p32
aS'X3=DL'
p33
aS'X3=GA'
p34
aS'X3=GJ'
p35
aS'X3=HP'
p36
aS'X3=HR'
p37
aS'X3=JH'
p38
aS'X3=KA'
p39
aS'X3=KL'
p40
aS'X3=MH'
p41
aS'X3=MP'
p42
aS'X3=OD'
p43
aS'X3=PB'
p44
aS'X3=PY'
p45
aS'X3=RJ'
p46
aS'X3=TN'
p47
aS'X3=TR'
p48
aS'X3=UK'
p49
aS'X3=UP'
p50
aS'X3=WB'
p51
aS'X4='
p52
aS'X4=AIRCEL'
p53
aS'X4=AIRTEL'
p54
aS'X4=BSNL'
p55
aS'X4=CELLONE'
p56
aS'X4=DOCOMO'
p57
aS'X4=HUTCH'
p58
aS'X4=IDEA'
p59
aS'X4=JIO'
p60
aS'X4=STARHUB'
p61
aS'X4=TELENOR'
p62
aS'X4=VODAFONE'
p63
asS'dtype'
p64
cnumpy
float64
p65
sS'vocabulary_'
p66
(dp67
g43
I34
sg14
I5
sg50
I41
sg63
I54
sg39
I30
sg9
I0
sg54
I45
sg46
I37
sg53
I44
sg42
I33
sg55
I46
sg40
I31
sg49
I40
sg51
I42
sg47
I38
sg11
I2
sg30
I21
sg26
I17
sg33
I24
sg48
I39
sg23
I14
sg22
I13
sg29
I20
sg13
I4
sg25
I16
sg52
I43
sg15
I6
sg21
I12
sg45
I36
sg38
I29
sg36
I27
sg58
I49
sg37
I28
sg56
I47
sg10
I1
sg62
I53
sg44
I35
sg19
I10
sg12
I3
sg32
I23
sg35
I26
sg60
I51
sg16
I7
sg59
I50
sg18
I9
sg34
I25
sg17
I8
sg20
I11
sg61
I52
sg57
I48
sg41
I32
sg31
I22
sg28
I19
sg27
I18
sg24
I15
ssS'separator'
p68
S'='
p69
sS'sparse'
p70
I00
sS'_sklearn_version'
p71
S'0.19.0'
p72
sb.